target datalayout = "e-m:e-p270:32:32-p271:32:32-p272:64:64-i64:64-i128:128-f80:128-n8:16:32:64-S128"
target triple = "x86_64-unknown-linux-gnu"

%"struct.facebook::velox::Timestamp" = type { i64, i64 }
%"class.std::__cxx11::basic_string" = type { %"struct.std::__cxx11::basic_string<char>::_Alloc_hider", i64, %union.anon }
%"struct.std::__cxx11::basic_string<char>::_Alloc_hider" = type { ptr }
%union.anon = type { i64, [8 x i8] }
%struct.tm = type { i32, i32, i32, i32, i32, i32, i32, i32, i32, i64, ptr }
%"struct.facebook::velox::TimestampToStringOptions" = type { i8, i8, i8, i8 }

; Function Attrs: mustprogress uwtable
define linkonce_odr void @_ZNK8facebook5velox9Timestamp8toStringB5cxx11ERKNS0_24TimestampToStringOptionsE(ptr noalias sret(%"class.std::__cxx11::basic_string") align 8 %agg.result, ptr noundef nonnull align 8 dereferenceable(16) %this, ptr noundef nonnull align 1 dereferenceable(4) %options) #0 comdat align 2 {
entry:
  %result.ptr = alloca ptr, align 8
  %this.addr = alloca ptr, align 8
  %options.addr = alloca ptr, align 8
  %tm = alloca %struct.tm, align 8
  store ptr %agg.result, ptr %result.ptr, align 8
  store ptr %this, ptr %this.addr, align 8
  store ptr %options, ptr %options.addr, align 8
  %this1 = load ptr, ptr %this.addr, align 8
  %seconds_ = getelementptr inbounds %"struct.facebook::velox::Timestamp", ptr %this1, i32 0, i32 0
  %0 = load i64, ptr %seconds_, align 8
  %call = call noundef zeroext i1 @_ZN8facebook5velox9Timestamp10epochToUtcElR2tm(i64 noundef %0, ptr noundef nonnull align 8 dereferenceable(56) %tm)
  %lnot = xor i1 %call, true
  br i1 %lnot, label %if.then, label %if.end

if.then:                                          ; preds = %entry
  call void @llvm.trap()
  br label %if.end

if.end:                                           ; preds = %if.then, %entry
  %nanos_ = getelementptr inbounds %"struct.facebook::velox::Timestamp", ptr %this1, i32 0, i32 1
  %1 = load i64, ptr %nanos_, align 8
  %2 = load ptr, ptr %options.addr, align 8
  call void @_ZN8facebook5velox9Timestamp10tmToStringB5cxx11ERK2tmmRKNS0_24TimestampToStringOptionsE(ptr sret(%"class.std::__cxx11::basic_string") align 8 %agg.result, ptr noundef nonnull align 8 dereferenceable(56) %tm, i64 noundef %1, ptr noundef nonnull align 1 dereferenceable(4) %2)
  ret void
}

; Function Attrs: mustprogress uwtable
define void @_ZSt9to_stringB5cxx11RKN8facebook5velox9TimestampE(ptr noalias sret(%"class.std::__cxx11::basic_string") align 8 %agg.result, ptr noundef nonnull align 8 dereferenceable(16) %ts) #0 {
entry:
  %result.ptr = alloca ptr, align 8
  %ts.addr = alloca ptr, align 8
  %ref.tmp = alloca %"struct.facebook::velox::TimestampToStringOptions", align 1
  store ptr %agg.result, ptr %result.ptr, align 8
  store ptr %ts, ptr %ts.addr, align 8
  %0 = load ptr, ptr %ts.addr, align 8
  %precision = getelementptr inbounds %"struct.facebook::velox::TimestampToStringOptions", ptr %ref.tmp, i32 0, i32 0
  store i8 9, ptr %precision, align 1
  %zeroPaddingYear = getelementptr inbounds %"struct.facebook::velox::TimestampToStringOptions", ptr %ref.tmp, i32 0, i32 1
  store i8 0, ptr %zeroPaddingYear, align 1
  %dateTimeSeparator = getelementptr inbounds %"struct.facebook::velox::TimestampToStringOptions", ptr %ref.tmp, i32 0, i32 2
  store i8 84, ptr %dateTimeSeparator, align 1
  %mode = getelementptr inbounds %"struct.facebook::velox::TimestampToStringOptions", ptr %ref.tmp, i32 0, i32 3
  store i8 0, ptr %mode, align 1
  call void @_ZNK8facebook5velox9Timestamp8toStringB5cxx11ERKNS0_24TimestampToStringOptionsE(ptr sret(%"class.std::__cxx11::basic_string") align 8 %agg.result, ptr noundef nonnull align 8 dereferenceable(16) %0, ptr noundef nonnull align 1 dereferenceable(4) %ref.tmp)
  ret void
}