; Function Attrs: mustprogress uwtable
define void @_ZSt9to_stringB5cxx11RKN8facebook5velox9TimestampE(ptr noalias sret(%"class.std::__cxx11::basic_string") align 8 %agg.result, ptr nocapture noundef nonnull readonly align 8 dereferenceable(16) %ts) local_unnamed_addr #2 {
entry:
  %tm.i = alloca %struct.tm, align 8
  %ref.tmp = alloca %"struct.facebook::velox::TimestampToStringOptions", align 4
  store <4 x i8> <i8 9, i8 0, i8 84, i8 0>, ptr %ref.tmp, align 4
  call void @llvm.lifetime.start.p0(i64 56, ptr nonnull %tm.i)
  %0 = load i64, ptr %ts, align 8, !noalias !12
  %call.i = call noundef zeroext i1 @_ZN8facebook5velox9Timestamp10epochToUtcElR2tm(i64 noundef %0, ptr noundef nonnull align 8 dereferenceable(56) %tm.i), !noalias !12
  br i1 %call.i, label %_ZNK8facebook5velox9Timestamp8toStringB5cxx11ERKNS0_24TimestampToStringOptionsE.exit, label %if.then.i

if.then.i:                                        ; preds = %entry
  tail call void @llvm.trap()
  unreachable

_ZNK8facebook5velox9Timestamp8toStringB5cxx11ERKNS0_24TimestampToStringOptionsE.exit: ; preds = %entry
  %nanos_.i = getelementptr inbounds i8, ptr %ts, i64 8
  %1 = load i64, ptr %nanos_.i, align 8, !noalias !12
  call void @_ZN8facebook5velox9Timestamp10tmToStringB5cxx11ERK2tmmRKNS0_24TimestampToStringOptionsE(ptr sret(%"class.std::__cxx11::basic_string") align 8 %agg.result, ptr noundef nonnull align 8 dereferenceable(56) %tm.i, i64 noundef %1, ptr noundef nonnull align 1 dereferenceable(4) %ref.tmp)
  call void @llvm.lifetime.end.p0(i64 56, ptr nonnull %tm.i)
  ret void
}